; Function Attrs: nofree norecurse nosync nounwind memory(readwrite, inaccessiblemem: none) uwtable
define internal void @fade_samples_flt(ptr noundef readonly captures(none) %0, ptr noundef readonly captures(none) %1, i32 noundef %2, i32 noundef %3, i32 noundef %4, i64 noundef %5, i64 noundef %6, i32 noundef %7, double noundef %8, double noundef %9) #6 {
  %11 = load ptr, ptr %0, align 8, !tbaa !71
  %12 = load ptr, ptr %1, align 8, !tbaa !71
  %13 = icmp sgt i32 %2, 0
  %14 = icmp sgt i32 %3, 0
  %or.cond = and i1 %13, %14
  br i1 %or.cond, label %.lr.ph.us.preheader, label %._crit_edge28

.lr.ph.us.preheader:                              ; preds = %10
  %15 = sext i32 %4 to i64
  %wide.trip.count = zext nneg i32 %2 to i64
  br label %.lr.ph.us

.lr.ph.us:                                        ; preds = %.lr.ph.us.preheader, %._crit_edge.us
  %indvars.iv31 = phi i64 [ 0, %.lr.ph.us.preheader ], [ %indvars.iv.next32, %._crit_edge.us ]
  %.02024.us = phi i32 [ 0, %.lr.ph.us.preheader ], [ %20, %._crit_edge.us ]
  %16 = mul nsw i64 %indvars.iv31, %15
  %17 = add nsw i64 %5, %16
  %18 = tail call nsz fastcc double @fade_gain(i32 noundef %7, i64 noundef %17, i64 noundef %6, double noundef %8, double noundef %9)
  %19 = sext i32 %.02024.us to i64
  %20 = add i32 %3, %.02024.us
  br label %21

21:                                               ; preds = %.lr.ph.us, %21
  %indvars.iv = phi i64 [ %19, %.lr.ph.us ], [ %indvars.iv.next, %21 ]
  %22 = getelementptr inbounds float, ptr %12, i64 %indvars.iv
  %23 = load float, ptr %22, align 4, !tbaa !81
  %24 = fpext nsz float %23 to double
  %25 = fmul nsz double %18, %24
  %26 = fptrunc nsz double %25 to float
  %27 = getelementptr inbounds float, ptr %11, i64 %indvars.iv
  store float %26, ptr %27, align 4, !tbaa !81
  %indvars.iv.next = add nsw i64 %indvars.iv, 1
  %lftr.wideiv = trunc i64 %indvars.iv.next to i32
  %exitcond.not = icmp eq i32 %20, %lftr.wideiv
  br i1 %exitcond.not, label %._crit_edge.us, label %21, !llvm.loop !83

._crit_edge.us:                                   ; preds = %21
  %indvars.iv.next32 = add nuw nsw i64 %indvars.iv31, 1
  %exitcond34.not = icmp eq i64 %indvars.iv.next32, %wide.trip.count
  br i1 %exitcond34.not, label %._crit_edge28, label %.lr.ph.us, !llvm.loop !84

._crit_edge28:                                    ; preds = %._crit_edge.us, %10
  ret void
}